target datalayout = "e-m:e-p270:32:32-p271:32:32-p272:64:64-i64:64-i128:128-f80:128-n8:16:32:64-S128"
target triple = "x86_64-pc-linux-gnu"

@.str.5 = private unnamed_addr constant [12 x i8] c"__overlay__\00", align 1

; Function Attrs: nounwind uwtable
define internal i32 @overlay_merge(ptr noundef %0, ptr noundef %1) #0 {
  %3 = alloca i32, align 4
  %4 = alloca ptr, align 8
  %5 = alloca ptr, align 8
  %6 = alloca i32, align 4
  %7 = alloca i32, align 4
  %8 = alloca i32, align 4
  %9 = alloca i32, align 4
  %10 = alloca i32, align 4
  store ptr %0, ptr %4, align 8
  store ptr %1, ptr %5, align 8
  call void @llvm.lifetime.start.p0(i64 4, ptr %6) #7
  store i32 0, ptr %6, align 4, !annotation !4
  %11 = load ptr, ptr %5, align 8
  %12 = call i32 @fdt_first_subnode(ptr noundef %11, i32 noundef 0)
  store i32 %12, ptr %6, align 4
  br label %13

13:                                               ; preds = %51, %2
  %14 = load i32, ptr %6, align 4
  %15 = icmp sge i32 %14, 0
  br i1 %15, label %16, label %55

16:                                               ; preds = %13
  call void @llvm.lifetime.start.p0(i64 4, ptr %7) #7
  store i32 0, ptr %7, align 4, !annotation !4
  call void @llvm.lifetime.start.p0(i64 4, ptr %8) #7
  store i32 0, ptr %8, align 4, !annotation !4
  call void @llvm.lifetime.start.p0(i64 4, ptr %9) #7
  store i32 0, ptr %9, align 4, !annotation !4
  %17 = load ptr, ptr %5, align 8
  %18 = load i32, ptr %6, align 4
  %19 = call i32 @fdt_subnode_offset(ptr noundef %17, i32 noundef %18, ptr noundef @.str.5)
  store i32 %19, ptr %7, align 4
  %20 = load i32, ptr %7, align 4
  %21 = icmp eq i32 %20, -1
  br i1 %21, label %22, label %23

22:                                               ; preds = %16
  store i32 4, ptr %10, align 4
  br label %48

23:                                               ; preds = %16
  %24 = load i32, ptr %7, align 4
  %25 = icmp slt i32 %24, 0
  br i1 %25, label %26, label %28

26:                                               ; preds = %23
  %27 = load i32, ptr %7, align 4
  store i32 %27, ptr %3, align 4
  store i32 1, ptr %10, align 4
  br label %48

28:                                               ; preds = %23
  %29 = load ptr, ptr %4, align 8
  %30 = load ptr, ptr %5, align 8
  %31 = load i32, ptr %6, align 4
  %32 = call i32 @overlay_get_target(ptr noundef %29, ptr noundef %30, i32 noundef %31, ptr noundef null)
  store i32 %32, ptr %8, align 4
  %33 = load i32, ptr %8, align 4
  %34 = icmp slt i32 %33, 0
  br i1 %34, label %35, label %37

35:                                               ; preds = %28
  %36 = load i32, ptr %8, align 4
  store i32 %36, ptr %3, align 4
  store i32 1, ptr %10, align 4
  br label %48

37:                                               ; preds = %28
  %38 = load ptr, ptr %4, align 8
  %39 = load i32, ptr %8, align 4
  %40 = load ptr, ptr %5, align 8
  %41 = load i32, ptr %7, align 4
  %42 = call i32 @overlay_apply_node(ptr noundef %38, i32 noundef %39, ptr noundef %40, i32 noundef %41)
  store i32 %42, ptr %9, align 4
  %43 = load i32, ptr %9, align 4
  %44 = icmp ne i32 %43, 0
  br i1 %44, label %45, label %47

45:                                               ; preds = %37
  %46 = load i32, ptr %9, align 4
  store i32 %46, ptr %3, align 4
  store i32 1, ptr %10, align 4
  br label %48

47:                                               ; preds = %37
  store i32 0, ptr %10, align 4
  br label %48

48:                                               ; preds = %47, %45, %35, %26, %22
  call void @llvm.lifetime.end.p0(i64 4, ptr %9) #7
  call void @llvm.lifetime.end.p0(i64 4, ptr %8) #7
  call void @llvm.lifetime.end.p0(i64 4, ptr %7) #7
  %49 = load i32, ptr %10, align 4
  switch i32 %49, label %56 [
    i32 0, label %50
    i32 4, label %51
  ]

50:                                               ; preds = %48
  br label %51

51:                                               ; preds = %50, %48
  %52 = load ptr, ptr %5, align 8
  %53 = load i32, ptr %6, align 4
  %54 = call i32 @fdt_next_subnode(ptr noundef %52, i32 noundef %53)
  store i32 %54, ptr %6, align 4
  br label %13, !llvm.loop !7

55:                                               ; preds = %13
  store i32 0, ptr %3, align 4
  store i32 1, ptr %10, align 4
  br label %56

56:                                               ; preds = %55, %48
  call void @llvm.lifetime.end.p0(i64 4, ptr %6) #7
  %57 = load i32, ptr %3, align 4
  ret i32 %57
}